; ModuleID = '24/2617.c'
source_filename = "24/2617.c"
target datalayout = "e-m:e-p270:32:32-p271:32:32-p272:64:64-i64:64-f80:128-n8:16:32:64-S128"
target triple = "x86_64-pc-linux-gnu"

@.str = private unnamed_addr constant [4 x i8] c"%d\0A\00", align 1

; Function Attrs: noinline nounwind uwtable
define dso_local void @main() #0 {
  %1 = alloca [5000 x i8], align 16
  %2 = alloca [200 x [20 x i8]], align 16
  %3 = alloca i32, align 4
  %4 = alloca i32, align 4
  %5 = alloca i32, align 4
  %6 = alloca i32, align 4
  %7 = alloca i32, align 4
  %8 = alloca i32, align 4
  %9 = alloca i32, align 4
  %10 = alloca i32, align 4
  %11 = alloca i32, align 4
  %12 = alloca [200 x i32], align 16
  %13 = bitcast [5000 x i8]* %1 to i8*
  call void @llvm.memset.p0i8.i64(i8* align 16 %13, i8 0, i64 5000, i1 false)
  %14 = bitcast [200 x [20 x i8]]* %2 to i8*
  call void @llvm.memset.p0i8.i64(i8* align 16 %14, i8 0, i64 4000, i1 false)
  %15 = bitcast [200 x i32]* %12 to i8*
  call void @llvm.memset.p0i8.i64(i8* align 16 %15, i8 0, i64 800, i1 false)
  %16 = call i32 (i8*, ...) @__isoc99_scanf(i8* getelementptr inbounds ([4 x i8], [4 x i8]* @.str, i64 0, i64 0), i32* %8)
  %17 = getelementptr inbounds [5000 x i8], [5000 x i8]* %1, i64 0, i64 0
  %18 = call i32 (i8*, ...) bitcast (i32 (...)* @gets to i32 (i8*, ...)*)(i8* %17)
  store i32 0, i32* %6, align 4
  store i32 0, i32* %3, align 4
  store i32 0, i32* %4, align 4
  br label %19

19:                                               ; preds = %61, %0
  %20 = load i32, i32* %6, align 4
  %21 = sext i32 %20 to i64
  %22 = getelementptr inbounds [5000 x i8], [5000 x i8]* %1, i64 0, i64 %21
  %23 = load i8, i8* %22, align 1
  %24 = sext i8 %23 to i32
  %25 = icmp ne i32 %24, 0
  br i1 %25, label %26, label %64

26:                                               ; preds = %19
  %27 = load i32, i32* %6, align 4
  %28 = sext i32 %27 to i64
  %29 = getelementptr inbounds [5000 x i8], [5000 x i8]* %1, i64 0, i64 %28
  %30 = load i8, i8* %29, align 1
  %31 = sext i8 %30 to i32
  %32 = icmp eq i32 %31, 32
  br i1 %32, label %40, label %33

33:                                               ; preds = %26
  %34 = load i32, i32* %6, align 4
  %35 = sext i32 %34 to i64
  %36 = getelementptr inbounds [5000 x i8], [5000 x i8]* %1, i64 0, i64 %35
  %37 = load i8, i8* %36, align 1
  %38 = sext i8 %37 to i32
  %39 = icmp eq i32 %38, 44
  br i1 %39, label %40, label %47

40:                                               ; preds = %33, %26
  %41 = load i32, i32* %4, align 4
  %42 = load i32, i32* %3, align 4
  %43 = sext i32 %42 to i64
  %44 = getelementptr inbounds [200 x i32], [200 x i32]* %12, i64 0, i64 %43
  store i32 %41, i32* %44, align 4
  %45 = load i32, i32* %3, align 4
  %46 = add nsw i32 %45, 1
  store i32 %46, i32* %3, align 4
  store i32 0, i32* %4, align 4
  br label %60

47:                                               ; preds = %33
  %48 = load i32, i32* %6, align 4
  %49 = sext i32 %48 to i64
  %50 = getelementptr inbounds [5000 x i8], [5000 x i8]* %1, i64 0, i64 %49
  %51 = load i8, i8* %50, align 1
  %52 = load i32, i32* %3, align 4
  %53 = sext i32 %52 to i64
  %54 = getelementptr inbounds [200 x [20 x i8]], [200 x [20 x i8]]* %2, i64 0, i64 %53
  %55 = load i32, i32* %4, align 4
  %56 = sext i32 %55 to i64
  %57 = getelementptr inbounds [20 x i8], [20 x i8]* %54, i64 0, i64 %56
  store i8 %51, i8* %57, align 1
  %58 = load i32, i32* %4, align 4
  %59 = add nsw i32 %58, 1
  store i32 %59, i32* %4, align 4
  br label %60

60:                                               ; preds = %47, %40
  br label %61

61:                                               ; preds = %60
  %62 = load i32, i32* %6, align 4
  %63 = add nsw i32 %62, 1
  store i32 %63, i32* %6, align 4
  br label %19

64:                                               ; preds = %19
  %65 = load i32, i32* %4, align 4
  %66 = load i32, i32* %3, align 4
  %67 = sext i32 %66 to i64
  %68 = getelementptr inbounds [200 x i32], [200 x i32]* %12, i64 0, i64 %67
  store i32 %65, i32* %68, align 4
  %69 = load i32, i32* %3, align 4
  store i32 %69, i32* %5, align 4
  store i32 0, i32* %9, align 4
  store i32 0, i32* %7, align 4
  %70 = getelementptr inbounds [200 x i32], [200 x i32]* %12, i64 0, i64 0
  %71 = load i32, i32* %70, align 16
  store i32 %71, i32* %11, align 4
  store i32 %71, i32* %10, align 4
  store i32 1, i32* %3, align 4
  br label %72

72:                                               ; preds = %110, %64
  %73 = load i32, i32* %3, align 4
  %74 = load i32, i32* %5, align 4
  %75 = icmp sle i32 %73, %74
  br i1 %75, label %76, label %113

76:                                               ; preds = %72
  %77 = load i32, i32* %3, align 4
  %78 = sext i32 %77 to i64
  %79 = getelementptr inbounds [200 x i32], [200 x i32]* %12, i64 0, i64 %78
  %80 = load i32, i32* %79, align 4
  %81 = load i32, i32* %10, align 4
  %82 = icmp sgt i32 %80, %81
  br i1 %82, label %83, label %89

83:                                               ; preds = %76
  %84 = load i32, i32* %3, align 4
  %85 = sext i32 %84 to i64
  %86 = getelementptr inbounds [200 x i32], [200 x i32]* %12, i64 0, i64 %85
  %87 = load i32, i32* %86, align 4
  store i32 %87, i32* %10, align 4
  %88 = load i32, i32* %3, align 4
  store i32 %88, i32* %7, align 4
  br label %109

89:                                               ; preds = %76
  %90 = load i32, i32* %3, align 4
  %91 = sext i32 %90 to i64
  %92 = getelementptr inbounds [200 x i32], [200 x i32]* %12, i64 0, i64 %91
  %93 = load i32, i32* %92, align 4
  %94 = load i32, i32* %11, align 4
  %95 = icmp slt i32 %93, %94
  br i1 %95, label %96, label %108

96:                                               ; preds = %89
  %97 = load i32, i32* %3, align 4
  %98 = sext i32 %97 to i64
  %99 = getelementptr inbounds [200 x i32], [200 x i32]* %12, i64 0, i64 %98
  %100 = load i32, i32* %99, align 4
  %101 = icmp sgt i32 %100, 0
  br i1 %101, label %102, label %108

102:                                              ; preds = %96
  %103 = load i32, i32* %3, align 4
  %104 = sext i32 %103 to i64
  %105 = getelementptr inbounds [200 x i32], [200 x i32]* %12, i64 0, i64 %104
  %106 = load i32, i32* %105, align 4
  store i32 %106, i32* %11, align 4
  %107 = load i32, i32* %3, align 4
  store i32 %107, i32* %9, align 4
  br label %108

108:                                              ; preds = %102, %96, %89
  br label %109

109:                                              ; preds = %108, %83
  br label %110

110:                                              ; preds = %109
  %111 = load i32, i32* %3, align 4
  %112 = add nsw i32 %111, 1
  store i32 %112, i32* %3, align 4
  br label %72

113:                                              ; preds = %72
  %114 = load i32, i32* %7, align 4
  %115 = sext i32 %114 to i64
  %116 = getelementptr inbounds [200 x [20 x i8]], [200 x [20 x i8]]* %2, i64 0, i64 %115
  %117 = getelementptr inbounds [20 x i8], [20 x i8]* %116, i64 0, i64 0
  %118 = call i32 @puts(i8* %117)
  %119 = load i32, i32* %9, align 4
  %120 = sext i32 %119 to i64
  %121 = getelementptr inbounds [200 x [20 x i8]], [200 x [20 x i8]]* %2, i64 0, i64 %120
  %122 = getelementptr inbounds [20 x i8], [20 x i8]* %121, i64 0, i64 0
  %123 = call i32 @puts(i8* %122)
  ret void
}

; Function Attrs: argmemonly nounwind willreturn
declare void @llvm.memset.p0i8.i64(i8* nocapture writeonly, i8, i64, i1 immarg) #1

declare dso_local i32 @__isoc99_scanf(i8*, ...) #2

declare dso_local i32 @gets(...) #2

declare dso_local i32 @puts(i8*) #2


!llvm.module.flags = !{!0}
!llvm.ident = !{!1}

!0 = !{i32 1, !"wchar_size", i32 4}
!1 = !{!"clang version 10.0.0-4ubuntu1 "}
